target datalayout = "e-m:e-p270:32:32-p271:32:32-p272:64:64-i64:64-i128:128-f80:128-n8:16:32:64-S128"
target triple = "x86_64-pc-linux-gnu"

%struct._drange_node = type { i32, i32, i32, i32 }

@.str.7 = private unnamed_addr constant [4 x i8] c"%d:\00", align 1
@.str.8 = private unnamed_addr constant [6 x i8] c"%d-%d\00", align 1
@.str.9 = private unnamed_addr constant [6 x i8] c"%d:%d\00", align 1
@.str.10 = private unnamed_addr constant [11 x i8] c"%d/%d/%d/U\00", align 1

; Function Attrs: null_pointer_is_valid sspstrong uwtable
define hidden ptr @drange_node_tostr(ptr noundef %0) #0 {
  %2 = alloca ptr, align 8
  %3 = alloca ptr, align 8
  store ptr %0, ptr %3, align 8
  %4 = load ptr, ptr %3, align 8
  %5 = getelementptr inbounds nuw %struct._drange_node, ptr %4, i32 0, i32 3
  %6 = load i32, ptr %5, align 4
  %7 = icmp eq i32 %6, 3
  br i1 %7, label %8, label %13

8:                                                ; preds = %1
  %9 = load ptr, ptr %3, align 8
  %10 = getelementptr inbounds nuw %struct._drange_node, ptr %9, i32 0, i32 0
  %11 = load i32, ptr %10, align 4
  %12 = call noalias ptr (ptr, ptr, ...) @wmem_strdup_printf(ptr noundef null, ptr noundef @.str.7, i32 noundef %11)
  store ptr %12, ptr %2, align 8
  br label %50

13:                                               ; preds = %1
  %14 = load ptr, ptr %3, align 8
  %15 = getelementptr inbounds nuw %struct._drange_node, ptr %14, i32 0, i32 3
  %16 = load i32, ptr %15, align 4
  %17 = icmp eq i32 %16, 2
  br i1 %17, label %18, label %26

18:                                               ; preds = %13
  %19 = load ptr, ptr %3, align 8
  %20 = getelementptr inbounds nuw %struct._drange_node, ptr %19, i32 0, i32 0
  %21 = load i32, ptr %20, align 4
  %22 = load ptr, ptr %3, align 8
  %23 = getelementptr inbounds nuw %struct._drange_node, ptr %22, i32 0, i32 2
  %24 = load i32, ptr %23, align 4
  %25 = call noalias ptr (ptr, ptr, ...) @wmem_strdup_printf(ptr noundef null, ptr noundef @.str.8, i32 noundef %21, i32 noundef %24)
  store ptr %25, ptr %2, align 8
  br label %50

26:                                               ; preds = %13
  %27 = load ptr, ptr %3, align 8
  %28 = getelementptr inbounds nuw %struct._drange_node, ptr %27, i32 0, i32 3
  %29 = load i32, ptr %28, align 4
  %30 = icmp eq i32 %29, 1
  br i1 %30, label %31, label %39

31:                                               ; preds = %26
  %32 = load ptr, ptr %3, align 8
  %33 = getelementptr inbounds nuw %struct._drange_node, ptr %32, i32 0, i32 0
  %34 = load i32, ptr %33, align 4
  %35 = load ptr, ptr %3, align 8
  %36 = getelementptr inbounds nuw %struct._drange_node, ptr %35, i32 0, i32 1
  %37 = load i32, ptr %36, align 4
  %38 = call noalias ptr (ptr, ptr, ...) @wmem_strdup_printf(ptr noundef null, ptr noundef @.str.9, i32 noundef %34, i32 noundef %37)
  store ptr %38, ptr %2, align 8
  br label %50

39:                                               ; preds = %26
  %40 = load ptr, ptr %3, align 8
  %41 = getelementptr inbounds nuw %struct._drange_node, ptr %40, i32 0, i32 0
  %42 = load i32, ptr %41, align 4
  %43 = load ptr, ptr %3, align 8
  %44 = getelementptr inbounds nuw %struct._drange_node, ptr %43, i32 0, i32 1
  %45 = load i32, ptr %44, align 4
  %46 = load ptr, ptr %3, align 8
  %47 = getelementptr inbounds nuw %struct._drange_node, ptr %46, i32 0, i32 2
  %48 = load i32, ptr %47, align 4
  %49 = call noalias ptr (ptr, ptr, ...) @wmem_strdup_printf(ptr noundef null, ptr noundef @.str.10, i32 noundef %42, i32 noundef %45, i32 noundef %48)
  store ptr %49, ptr %2, align 8
  br label %50

50:                                               ; preds = %39, %31, %18, %8
  %51 = load ptr, ptr %2, align 8
  ret ptr %51
}