; Function Attrs: null_pointer_is_valid sspstrong uwtable
define hidden noalias ptr @drange_node_tostr(ptr noundef readonly captures(none) %0) local_unnamed_addr #0 {
  %2 = getelementptr inbounds nuw i8, ptr %0, i64 12
  %3 = load i32, ptr %2, align 4
  %4 = load i32, ptr %0, align 4
  switch i32 %3, label %15 [
    i32 3, label %5
    i32 2, label %7
    i32 1, label %11
  ]

5:                                                ; preds = %1
  %6 = tail call noalias ptr (ptr, ptr, ...) @wmem_strdup_printf(ptr noundef null, ptr noundef nonnull @.str.7, i32 noundef %4)
  br label %21

7:                                                ; preds = %1
  %8 = getelementptr inbounds nuw i8, ptr %0, i64 8
  %9 = load i32, ptr %8, align 4
  %10 = tail call noalias ptr (ptr, ptr, ...) @wmem_strdup_printf(ptr noundef null, ptr noundef nonnull @.str.8, i32 noundef %4, i32 noundef %9)
  br label %21

11:                                               ; preds = %1
  %12 = getelementptr inbounds nuw i8, ptr %0, i64 4
  %13 = load i32, ptr %12, align 4
  %14 = tail call noalias ptr (ptr, ptr, ...) @wmem_strdup_printf(ptr noundef null, ptr noundef nonnull @.str.9, i32 noundef %4, i32 noundef %13)
  br label %21

15:                                               ; preds = %1
  %16 = getelementptr inbounds nuw i8, ptr %0, i64 4
  %17 = load i32, ptr %16, align 4
  %18 = getelementptr inbounds nuw i8, ptr %0, i64 8
  %19 = load i32, ptr %18, align 4
  %20 = tail call noalias ptr (ptr, ptr, ...) @wmem_strdup_printf(ptr noundef null, ptr noundef nonnull @.str.10, i32 noundef %4, i32 noundef %17, i32 noundef %19)
  br label %21

21:                                               ; preds = %15, %11, %7, %5
  %.0 = phi ptr [ %6, %5 ], [ %10, %7 ], [ %14, %11 ], [ %20, %15 ]
  ret ptr %.0
}